target datalayout = "e-m:e-p270:32:32-p271:32:32-p272:64:64-i64:64-i128:128-f80:128-n8:16:32:64-S128"
target triple = "x86_64-pc-linux-gnu"

%struct.H5VL_object_t = type { ptr, ptr, i64 }

@.str = private unnamed_addr constant [97 x i8] c"generated/home/dtcxzyw/WorkSpace/Projects/compilers/llvm-opt-benchmark/bench/hdf5/hdf5/src/H5A.c\00", align 1
@H5E_CANTINIT_g = external global i64, align 8
@H5E_ATTR_g = external global i64, align 8
@H5P_LST_DATASET_XFER_ID_g = external global i64, align 8
@.str.89 = private unnamed_addr constant [27 x i8] c"unable to create attribute\00", align 1
@__func__.H5A__create_common = private unnamed_addr constant [19 x i8] c"H5A__create_common\00", align 1
@H5E_CANTREGISTER_g = external global i64, align 8
@.str.90 = private unnamed_addr constant [36 x i8] c"unable to register attribute for ID\00", align 1
@H5E_CLOSEERROR_g = external global i64, align 8
@.str.91 = private unnamed_addr constant [22 x i8] c"can't close attribute\00", align 1

; Function Attrs: nounwind uwtable
define internal i64 @H5A__create_common(ptr noundef %0, ptr noundef %1, ptr noundef %2, i64 noundef %3, i64 noundef %4, i64 noundef %5, i64 noundef %6, ptr noundef %7) #0 {
  %9 = alloca ptr, align 8
  %10 = alloca ptr, align 8
  %11 = alloca ptr, align 8
  %12 = alloca i64, align 8
  %13 = alloca i64, align 8
  %14 = alloca i64, align 8
  %15 = alloca i64, align 8
  %16 = alloca ptr, align 8
  %17 = alloca ptr, align 8
  %18 = alloca i64, align 8
  %19 = alloca i8, align 1
  store ptr %0, ptr %9, align 8
  store ptr %1, ptr %10, align 8
  store ptr %2, ptr %11, align 8
  store i64 %3, ptr %12, align 8
  store i64 %4, ptr %13, align 8
  store i64 %5, ptr %14, align 8
  store i64 %6, ptr %15, align 8
  store ptr %7, ptr %16, align 8
  store ptr null, ptr %17, align 8
  store i64 -1, ptr %18, align 8
  store i8 0, ptr %19, align 1
  %20 = load ptr, ptr %9, align 8
  %21 = load ptr, ptr %10, align 8
  %22 = load ptr, ptr %11, align 8
  %23 = load i64, ptr %12, align 8
  %24 = load i64, ptr %13, align 8
  %25 = load i64, ptr %14, align 8
  %26 = load i64, ptr %15, align 8
  %27 = load i64, ptr @H5P_LST_DATASET_XFER_ID_g, align 8
  %28 = load ptr, ptr %16, align 8
  %29 = call ptr @H5VL_attr_create(ptr noundef %20, ptr noundef %21, ptr noundef %22, i64 noundef %23, i64 noundef %24, i64 noundef %25, i64 noundef %26, i64 noundef %27, ptr noundef %28)
  store ptr %29, ptr %17, align 8
  %30 = icmp eq ptr null, %29
  br i1 %30, label %31, label %46

31:                                               ; preds = %8
  br label %32

32:                                               ; preds = %31
  br label %33

33:                                               ; preds = %32
  br label %34

34:                                               ; preds = %33
  %35 = load i64, ptr @H5E_ATTR_g, align 8
  %36 = load i64, ptr @H5E_CANTINIT_g, align 8
  %37 = call i32 (ptr, ptr, i32, i64, i64, ptr, ...) @H5E_printf_stack(ptr noundef @.str, ptr noundef @__func__.H5A__create_common, i32 noundef 125, i64 noundef %35, i64 noundef %36, ptr noundef @.str.89)
  br label %38

38:                                               ; preds = %34
  store i8 1, ptr %19, align 1
  %39 = load i8, ptr %19, align 1
  %40 = trunc i8 %39 to i1
  %41 = zext i1 %40 to i8
  store i8 %41, ptr %19, align 1
  br label %42

42:                                               ; preds = %38
  br label %43

43:                                               ; preds = %42
  store i64 -1, ptr %18, align 8
  br label %69

44:                                               ; No predecessors!
  br label %45

45:                                               ; preds = %44
  br label %46

46:                                               ; preds = %45, %8
  %47 = load ptr, ptr %17, align 8
  %48 = load ptr, ptr %9, align 8
  %49 = getelementptr inbounds %struct.H5VL_object_t, ptr %48, i32 0, i32 1
  %50 = load ptr, ptr %49, align 8
  %51 = call i64 @H5VL_register(i32 noundef 7, ptr noundef %47, ptr noundef %50, i1 noundef zeroext true)
  store i64 %51, ptr %18, align 8
  %52 = icmp slt i64 %51, 0
  br i1 %52, label %53, label %68

53:                                               ; preds = %46
  br label %54

54:                                               ; preds = %53
  br label %55

55:                                               ; preds = %54
  br label %56

56:                                               ; preds = %55
  %57 = load i64, ptr @H5E_ATTR_g, align 8
  %58 = load i64, ptr @H5E_CANTREGISTER_g, align 8
  %59 = call i32 (ptr, ptr, i32, i64, i64, ptr, ...) @H5E_printf_stack(ptr noundef @.str, ptr noundef @__func__.H5A__create_common, i32 noundef 129, i64 noundef %57, i64 noundef %58, ptr noundef @.str.90)
  br label %60

60:                                               ; preds = %56
  store i8 1, ptr %19, align 1
  %61 = load i8, ptr %19, align 1
  %62 = trunc i8 %61 to i1
  %63 = zext i1 %62 to i8
  store i8 %63, ptr %19, align 1
  br label %64

64:                                               ; preds = %60
  br label %65

65:                                               ; preds = %64
  store i64 -1, ptr %18, align 8
  br label %69

66:                                               ; No predecessors!
  br label %67

67:                                               ; preds = %66
  br label %68

68:                                               ; preds = %67, %46
  br label %69

69:                                               ; preds = %68, %65, %43
  %70 = load i64, ptr %18, align 8
  %71 = icmp eq i64 -1, %70
  br i1 %71, label %72, label %94

72:                                               ; preds = %69
  %73 = load ptr, ptr %17, align 8
  %74 = icmp ne ptr %73, null
  br i1 %74, label %75, label %93

75:                                               ; preds = %72
  %76 = load ptr, ptr %9, align 8
  %77 = load i64, ptr @H5P_LST_DATASET_XFER_ID_g, align 8
  %78 = call i32 @H5VL_attr_close(ptr noundef %76, i64 noundef %77, ptr noundef null)
  %79 = icmp slt i32 %78, 0
  br i1 %79, label %80, label %93

80:                                               ; preds = %75
  br label %81

81:                                               ; preds = %80
  br label %82

82:                                               ; preds = %81
  br label %83

83:                                               ; preds = %82
  %84 = load i64, ptr @H5E_ATTR_g, align 8
  %85 = load i64, ptr @H5E_CLOSEERROR_g, align 8
  %86 = call i32 (ptr, ptr, i32, i64, i64, ptr, ...) @H5E_printf_stack(ptr noundef @.str, ptr noundef @__func__.H5A__create_common, i32 noundef 135, i64 noundef %84, i64 noundef %85, ptr noundef @.str.91)
  br label %87

87:                                               ; preds = %83
  store i8 1, ptr %19, align 1
  %88 = load i8, ptr %19, align 1
  %89 = trunc i8 %88 to i1
  %90 = zext i1 %89 to i8
  store i8 %90, ptr %19, align 1
  br label %91

91:                                               ; preds = %87
  store i64 -1, ptr %18, align 8
  br label %92

92:                                               ; preds = %91
  br label %93

93:                                               ; preds = %92, %75, %72
  br label %94

94:                                               ; preds = %93, %69
  %95 = load i64, ptr %18, align 8
  ret i64 %95
}