; Function Attrs: nounwind uwtable
define internal fastcc range(i64 -1, -9223372036854775808) i64 @H5A__create_common(ptr noundef %0, ptr noundef %1, ptr noundef %2, i64 noundef %3, i64 noundef %4, i64 noundef %5, i64 noundef %6, ptr noundef %7) unnamed_addr #0 {
  %9 = load i64, ptr @H5P_LST_DATASET_XFER_ID_g, align 8
  %10 = tail call ptr @H5VL_attr_create(ptr noundef %0, ptr noundef %1, ptr noundef %2, i64 noundef %3, i64 noundef %4, i64 noundef %5, i64 noundef %6, i64 noundef %9, ptr noundef %7) #4
  %11 = icmp eq ptr %10, null
  br i1 %11, label %12, label %16

12:                                               ; preds = %8
  %13 = load i64, ptr @H5E_ATTR_g, align 8
  %14 = load i64, ptr @H5E_CANTINIT_g, align 8
  %15 = tail call i32 (ptr, ptr, i32, i64, i64, ptr, ...) @H5E_printf_stack(ptr noundef nonnull @.str, ptr noundef nonnull @__func__.H5A__create_common, i32 noundef 125, i64 noundef %13, i64 noundef %14, ptr noundef nonnull @.str.89) #4
  br label %.thread

16:                                               ; preds = %8
  %17 = getelementptr inbounds i8, ptr %0, i64 8
  %18 = load ptr, ptr %17, align 8
  %19 = tail call i64 @H5VL_register(i32 noundef 7, ptr noundef nonnull %10, ptr noundef %18, i1 noundef zeroext true) #4
  %20 = icmp slt i64 %19, 0
  br i1 %20, label %21, label %.thread

21:                                               ; preds = %16
  %22 = load i64, ptr @H5E_ATTR_g, align 8
  %23 = load i64, ptr @H5E_CANTREGISTER_g, align 8
  %24 = tail call i32 (ptr, ptr, i32, i64, i64, ptr, ...) @H5E_printf_stack(ptr noundef nonnull @.str, ptr noundef nonnull @__func__.H5A__create_common, i32 noundef 129, i64 noundef %22, i64 noundef %23, ptr noundef nonnull @.str.90) #4
  %25 = load i64, ptr @H5P_LST_DATASET_XFER_ID_g, align 8
  %26 = tail call i32 @H5VL_attr_close(ptr noundef nonnull %0, i64 noundef %25, ptr noundef null) #4
  %27 = icmp slt i32 %26, 0
  br i1 %27, label %28, label %.thread

28:                                               ; preds = %21
  %29 = load i64, ptr @H5E_ATTR_g, align 8
  %30 = load i64, ptr @H5E_CLOSEERROR_g, align 8
  %31 = tail call i32 (ptr, ptr, i32, i64, i64, ptr, ...) @H5E_printf_stack(ptr noundef nonnull @.str, ptr noundef nonnull @__func__.H5A__create_common, i32 noundef 135, i64 noundef %29, i64 noundef %30, ptr noundef nonnull @.str.91) #4
  br label %.thread

.thread:                                          ; preds = %12, %16, %21, %28
  %.1 = phi i64 [ -1, %28 ], [ -1, %21 ], [ %19, %16 ], [ -1, %12 ]
  ret i64 %.1
}